; Function Attrs: nounwind uwtable
define dso_local i64 @multirange_lower(ptr noundef captures(none) %0) local_unnamed_addr #0 {
  %2 = alloca %struct.RangeBound, align 8
  %3 = alloca %struct.RangeBound, align 8
  %4 = getelementptr inbounds nuw i8, ptr %0, i64 32
  %5 = load i64, ptr %4, align 8
  %6 = inttoptr i64 %5 to ptr
  %7 = tail call ptr @pg_detoast_datum(ptr noundef %6) #11
  call void @llvm.lifetime.start.p0(i64 16, ptr nonnull %2) #11
  call void @llvm.lifetime.start.p0(i64 16, ptr nonnull %3) #11
  %8 = getelementptr inbounds nuw i8, ptr %7, i64 8
  %9 = load i32, ptr %8, align 4
  %10 = icmp eq i32 %9, 0
  br i1 %10, label %11, label %13

11:                                               ; preds = %1
  %12 = getelementptr inbounds nuw i8, ptr %0, i64 28
  store i8 1, ptr %12, align 4
  br label %42

13:                                               ; preds = %1
  %14 = getelementptr inbounds nuw i8, ptr %7, i64 4
  %15 = load i32, ptr %14, align 4
  %16 = load ptr, ptr %0, align 8
  %17 = getelementptr inbounds nuw i8, ptr %16, i64 24
  %18 = load ptr, ptr %17, align 8
  %19 = icmp eq ptr %18, null
  br i1 %19, label %22, label %20

20:                                               ; preds = %13
  %21 = load i32, ptr %18, align 8
  %.not.i = icmp eq i32 %21, %15
  br i1 %.not.i, label %multirange_get_typcache.exit, label %22

22:                                               ; preds = %20, %13
  %23 = tail call ptr @lookup_type_cache(i32 noundef %15, i32 noundef 65536) #11
  %24 = getelementptr inbounds nuw i8, ptr %23, i64 440
  %25 = load ptr, ptr %24, align 8
  %26 = icmp eq ptr %25, null
  br i1 %26, label %27, label %30

27:                                               ; preds = %22
  %28 = tail call zeroext i1 @errstart_cold(i32 noundef 21, ptr noundef null) #13
  tail call void @llvm.assume(i1 %28)
  %29 = tail call i32 (ptr, ...) @errmsg_internal(ptr noundef nonnull @.str.9, i32 noundef %15) #11
  tail call void @errfinish(ptr noundef nonnull @.str.2, i32 noundef 557, ptr noundef nonnull @__func__.multirange_get_typcache) #11
  unreachable

30:                                               ; preds = %22
  %31 = load ptr, ptr %0, align 8
  %32 = getelementptr inbounds nuw i8, ptr %31, i64 24
  store ptr %23, ptr %32, align 8
  br label %multirange_get_typcache.exit

multirange_get_typcache.exit:                     ; preds = %20, %30
  %.0.i = phi ptr [ %23, %30 ], [ %18, %20 ]
  %33 = getelementptr inbounds nuw i8, ptr %.0.i, i64 440
  %34 = load ptr, ptr %33, align 8
  call void @multirange_get_bounds(ptr noundef %34, ptr noundef nonnull %7, i32 noundef 0, ptr noundef nonnull %2, ptr noundef nonnull %3)
  %35 = getelementptr inbounds nuw i8, ptr %2, i64 8
  %36 = load i8, ptr %35, align 8, !range !22, !noundef !23
  %37 = trunc nuw i8 %36 to i1
  br i1 %37, label %40, label %38

38:                                               ; preds = %multirange_get_typcache.exit
  %39 = load i64, ptr %2, align 8
  br label %42

40:                                               ; preds = %multirange_get_typcache.exit
  %41 = getelementptr inbounds nuw i8, ptr %0, i64 28
  store i8 1, ptr %41, align 4
  br label %42

42:                                               ; preds = %40, %38, %11
  %.0 = phi i64 [ 0, %11 ], [ 0, %40 ], [ %39, %38 ]
  call void @llvm.lifetime.end.p0(i64 16, ptr nonnull %3) #11
  call void @llvm.lifetime.end.p0(i64 16, ptr nonnull %2) #11
  ret i64 %.0
}